target datalayout = "e-m:e-p270:32:32-p271:32:32-p272:64:64-i64:64-i128:128-f80:128-n8:16:32:64-S128"
target triple = "x86_64-pc-linux-gnu"

%struct.PQArgBlock = type { i32, i32, %union.anon }
%union.anon = type { ptr }
%struct.pg_conn = type { ptr, ptr, ptr, ptr, ptr, ptr, ptr, ptr, ptr, ptr, ptr, ptr, ptr, ptr, ptr, ptr, ptr, ptr, ptr, ptr, ptr, ptr, ptr, ptr, ptr, ptr, ptr, ptr, ptr, ptr, ptr, ptr, ptr, ptr, ptr, ptr, ptr, ptr, ptr, ptr, ptr, ptr, ptr, i8, ptr, i32, %struct.PGNoticeHooks, ptr, i32, i32, i32, i32, i32, [6 x i8], i8, i8, i32, i8, i8, i32, i8, i32, ptr, ptr, i32, i32, ptr, ptr, ptr, ptr, ptr, i32, %struct.SockAddr, %struct.SockAddr, i32, i32, i8, i8, i8, i8, i8, i8, ptr, i8, i32, [1 x ptr], i8, i8, ptr, ptr, i32, i32, i32, i8, i8, i32, i32, ptr, i8, i64, ptr, i64, ptr, i32, i32, ptr, i32, i8, i32, i32, i32, i32, ptr, %struct.pg_prng_state, ptr, i32, i32, i32, i32, ptr, i32, i32, i32, i32, ptr, i32, ptr, i8, ptr, ptr, ptr, i32, i8, i8, i8, i8, i8, i8, i8, i8, %struct.PQExpBufferData, i32, %struct.PQExpBufferData }
%struct.PGNoticeHooks = type { ptr, ptr, ptr, ptr }
%struct.SockAddr = type { %struct.sockaddr_storage, i32 }
%struct.sockaddr_storage = type { i16, [118 x i8], i64 }
%struct.pg_prng_state = type { i64, i64 }
%struct.PQExpBufferData = type { ptr, i64, i64 }
%struct.pgLobjfuncs = type { i32, i32, i32, i32, i32, i32, i32, i32, i32, i32, i32, i32, i32 }

@.str.4 = private unnamed_addr constant [42 x i8] c"argument of lo_read exceeds integer range\00", align 1

; Function Attrs: nounwind uwtable
define i32 @lo_read(ptr noundef %0, i32 noundef %1, ptr noundef %2, i64 noundef %3) #0 {
  %5 = alloca i32, align 4
  %6 = alloca ptr, align 8
  %7 = alloca i32, align 4
  %8 = alloca ptr, align 8
  %9 = alloca i64, align 8
  %10 = alloca [2 x %struct.PQArgBlock], align 16
  %11 = alloca ptr, align 8
  %12 = alloca i32, align 4
  %13 = alloca i32, align 4
  store ptr %0, ptr %6, align 8
  store i32 %1, ptr %7, align 4
  store ptr %2, ptr %8, align 8
  store i64 %3, ptr %9, align 8
  call void @llvm.lifetime.start.p0(i64 32, ptr %10) #10
  call void @llvm.lifetime.start.p0(i64 8, ptr %11) #10
  call void @llvm.lifetime.start.p0(i64 4, ptr %12) #10
  %14 = load ptr, ptr %6, align 8
  %15 = call i32 @lo_initialize(ptr noundef %14)
  %16 = icmp slt i32 %15, 0
  br i1 %16, label %17, label %18

17:                                               ; preds = %4
  store i32 -1, ptr %5, align 4
  store i32 1, ptr %13, align 4
  br label %56

18:                                               ; preds = %4
  %19 = load i64, ptr %9, align 8
  %20 = icmp ugt i64 %19, 2147483647
  br i1 %20, label %21, label %23

21:                                               ; preds = %18
  %22 = load ptr, ptr %6, align 8
  call void (ptr, ptr, ...) @libpq_append_conn_error(ptr noundef %22, ptr noundef @.str.4)
  store i32 -1, ptr %5, align 4
  store i32 1, ptr %13, align 4
  br label %56

23:                                               ; preds = %18
  %24 = getelementptr inbounds [2 x %struct.PQArgBlock], ptr %10, i64 0, i64 0
  %25 = getelementptr inbounds nuw %struct.PQArgBlock, ptr %24, i32 0, i32 1
  store i32 1, ptr %25, align 4
  %26 = getelementptr inbounds [2 x %struct.PQArgBlock], ptr %10, i64 0, i64 0
  %27 = getelementptr inbounds nuw %struct.PQArgBlock, ptr %26, i32 0, i32 0
  store i32 4, ptr %27, align 16
  %28 = load i32, ptr %7, align 4
  %29 = getelementptr inbounds [2 x %struct.PQArgBlock], ptr %10, i64 0, i64 0
  %30 = getelementptr inbounds nuw %struct.PQArgBlock, ptr %29, i32 0, i32 2
  store i32 %28, ptr %30, align 8
  %31 = getelementptr inbounds [2 x %struct.PQArgBlock], ptr %10, i64 0, i64 1
  %32 = getelementptr inbounds nuw %struct.PQArgBlock, ptr %31, i32 0, i32 1
  store i32 1, ptr %32, align 4
  %33 = getelementptr inbounds [2 x %struct.PQArgBlock], ptr %10, i64 0, i64 1
  %34 = getelementptr inbounds nuw %struct.PQArgBlock, ptr %33, i32 0, i32 0
  store i32 4, ptr %34, align 16
  %35 = load i64, ptr %9, align 8
  %36 = trunc i64 %35 to i32
  %37 = getelementptr inbounds [2 x %struct.PQArgBlock], ptr %10, i64 0, i64 1
  %38 = getelementptr inbounds nuw %struct.PQArgBlock, ptr %37, i32 0, i32 2
  store i32 %36, ptr %38, align 8
  %39 = load ptr, ptr %6, align 8
  %40 = load ptr, ptr %6, align 8
  %41 = getelementptr inbounds nuw %struct.pg_conn, ptr %40, i32 0, i32 112
  %42 = load ptr, ptr %41, align 8
  %43 = getelementptr inbounds nuw %struct.pgLobjfuncs, ptr %42, i32 0, i32 11
  %44 = load i32, ptr %43, align 4
  %45 = load ptr, ptr %8, align 8
  %46 = getelementptr inbounds [2 x %struct.PQArgBlock], ptr %10, i64 0, i64 0
  %47 = call ptr @PQfn(ptr noundef %39, i32 noundef %44, ptr noundef %45, ptr noundef %12, i32 noundef 0, ptr noundef %46, i32 noundef 2)
  store ptr %47, ptr %11, align 8
  %48 = load ptr, ptr %11, align 8
  %49 = call i32 @PQresultStatus(ptr noundef %48)
  %50 = icmp eq i32 %49, 1
  br i1 %50, label %51, label %54

51:                                               ; preds = %23
  %52 = load ptr, ptr %11, align 8
  call void @PQclear(ptr noundef %52)
  %53 = load i32, ptr %12, align 4
  store i32 %53, ptr %5, align 4
  store i32 1, ptr %13, align 4
  br label %56

54:                                               ; preds = %23
  %55 = load ptr, ptr %11, align 8
  call void @PQclear(ptr noundef %55)
  store i32 -1, ptr %5, align 4
  store i32 1, ptr %13, align 4
  br label %56

56:                                               ; preds = %54, %51, %21, %17
  call void @llvm.lifetime.end.p0(i64 4, ptr %12) #10
  call void @llvm.lifetime.end.p0(i64 8, ptr %11) #10
  call void @llvm.lifetime.end.p0(i64 32, ptr %10) #10
  %57 = load i32, ptr %5, align 4
  ret i32 %57
}