; Function Attrs: nounwind uwtable
define i32 @lo_read(ptr noundef %0, i32 noundef %1, ptr noundef %2, i64 noundef %3) local_unnamed_addr #0 {
  %5 = alloca [2 x %struct.PQArgBlock], align 16
  %6 = alloca i32, align 4
  call void @llvm.lifetime.start.p0(i64 32, ptr nonnull %5) #10
  call void @llvm.lifetime.start.p0(i64 4, ptr nonnull %6) #10
  %7 = tail call fastcc i32 @lo_initialize(ptr noundef %0)
  %8 = icmp slt i32 %7, 0
  br i1 %8, label %27, label %9

9:                                                ; preds = %4
  %10 = icmp ugt i64 %3, 2147483647
  br i1 %10, label %11, label %12

11:                                               ; preds = %9
  tail call void (ptr, ptr, ...) @libpq_append_conn_error(ptr noundef %0, ptr noundef nonnull @.str.4) #10
  br label %27

12:                                               ; preds = %9
  %13 = getelementptr inbounds nuw i8, ptr %5, i64 4
  store i32 1, ptr %13, align 4
  store i32 4, ptr %5, align 16
  %14 = getelementptr inbounds nuw i8, ptr %5, i64 8
  store i32 %1, ptr %14, align 8
  %15 = getelementptr inbounds nuw i8, ptr %5, i64 16
  %16 = getelementptr inbounds nuw i8, ptr %5, i64 20
  store i32 1, ptr %16, align 4
  store i32 4, ptr %15, align 16
  %17 = trunc nuw nsw i64 %3 to i32
  %18 = getelementptr inbounds nuw i8, ptr %5, i64 24
  store i32 %17, ptr %18, align 8
  %19 = getelementptr inbounds nuw i8, ptr %0, i64 976
  %20 = load ptr, ptr %19, align 8
  %21 = getelementptr inbounds nuw i8, ptr %20, i64 44
  %22 = load i32, ptr %21, align 4
  %23 = call ptr @PQfn(ptr noundef %0, i32 noundef %22, ptr noundef %2, ptr noundef nonnull %6, i32 noundef 0, ptr noundef nonnull %5, i32 noundef 2) #10
  %24 = call i32 @PQresultStatus(ptr noundef %23) #10
  %25 = icmp eq i32 %24, 1
  call void @PQclear(ptr noundef %23) #10
  %26 = load i32, ptr %6, align 4
  %spec.select = select i1 %25, i32 %26, i32 -1
  br label %27

27:                                               ; preds = %12, %4, %11
  %.0 = phi i32 [ -1, %11 ], [ -1, %4 ], [ %spec.select, %12 ]
  call void @llvm.lifetime.end.p0(i64 4, ptr nonnull %6) #10
  call void @llvm.lifetime.end.p0(i64 32, ptr nonnull %5) #10
  ret i32 %.0
}